; Function Attrs: mustprogress uwtable
define internal noundef range(i64 -2147483648, 2147483648) i64 @_ZL30AsyncPrivateKeyMaxSignatureLenP6ssl_st(ptr noundef %0) #10 {
  %2 = load i32, ptr @_ZL13g_state_index, align 4, !tbaa !6
  %3 = tail call noundef ptr @SSL_get_ex_data(ptr noundef %0, i32 noundef %2)
  %4 = getelementptr inbounds nuw i8, ptr %3, i64 80
  %5 = load ptr, ptr %4, align 8, !tbaa !97
  %6 = tail call i32 @EVP_PKEY_size(ptr noundef %5)
  %7 = sext i32 %6 to i64
  ret i64 %7
}